; ModuleID = '26/1152.c'
source_filename = "26/1152.c"
target datalayout = "e-m:e-p270:32:32-p271:32:32-p272:64:64-i64:64-f80:128-n8:16:32:64-S128"
target triple = "x86_64-pc-linux-gnu"

; Function Attrs: noinline nounwind uwtable
define dso_local i32 @main() #0 {
  %1 = alloca i32, align 4
  %2 = alloca [300 x i8], align 16
  %3 = alloca [300 x i8], align 16
  %4 = alloca i32, align 4
  %5 = alloca i32, align 4
  %6 = alloca i32, align 4
  store i32 0, i32* %1, align 4
  %7 = bitcast [300 x i8]* %2 to i8*
  call void @llvm.memset.p0i8.i64(i8* align 16 %7, i8 0, i64 300, i1 false)
  %8 = bitcast i8* %7 to <{ i8, [299 x i8] }>*
  %9 = getelementptr inbounds <{ i8, [299 x i8] }>, <{ i8, [299 x i8] }>* %8, i32 0, i32 0
  store i8 32, i8* %9, align 16
  %10 = bitcast [300 x i8]* %3 to i8*
  call void @llvm.memset.p0i8.i64(i8* align 16 %10, i8 0, i64 300, i1 false)
  %11 = bitcast i8* %10 to <{ i8, [299 x i8] }>*
  %12 = getelementptr inbounds <{ i8, [299 x i8] }>, <{ i8, [299 x i8] }>* %11, i32 0, i32 0
  store i8 32, i8* %12, align 16
  %13 = getelementptr inbounds [300 x i8], [300 x i8]* %2, i64 0, i64 0
  %14 = call i32 (i8*, ...) bitcast (i32 (...)* @gets to i32 (i8*, ...)*)(i8* %13)
  store i32 0, i32* %6, align 4
  store i32 0, i32* %5, align 4
  br label %15

15:                                               ; preds = %54, %0
  %16 = load i32, i32* %5, align 4
  %17 = icmp slt i32 %16, 200
  br i1 %17, label %18, label %57

18:                                               ; preds = %15
  %19 = load i32, i32* %6, align 4
  store i32 %19, i32* %4, align 4
  br label %20

20:                                               ; preds = %50, %18
  %21 = load i32, i32* %4, align 4
  %22 = icmp slt i32 %21, 200
  br i1 %22, label %23, label %53

23:                                               ; preds = %20
  %24 = load i32, i32* %4, align 4
  %25 = add nsw i32 %24, 1
  %26 = sext i32 %25 to i64
  %27 = getelementptr inbounds [300 x i8], [300 x i8]* %2, i64 0, i64 %26
  %28 = load i8, i8* %27, align 1
  %29 = sext i8 %28 to i32
  %30 = icmp ne i32 %29, 32
  br i1 %30, label %38, label %31

31:                                               ; preds = %23
  %32 = load i32, i32* %4, align 4
  %33 = sext i32 %32 to i64
  %34 = getelementptr inbounds [300 x i8], [300 x i8]* %2, i64 0, i64 %33
  %35 = load i8, i8* %34, align 1
  %36 = sext i8 %35 to i32
  %37 = icmp ne i32 %36, 32
  br i1 %37, label %38, label %48

38:                                               ; preds = %31, %23
  %39 = load i32, i32* %4, align 4
  %40 = sext i32 %39 to i64
  %41 = getelementptr inbounds [300 x i8], [300 x i8]* %2, i64 0, i64 %40
  %42 = load i8, i8* %41, align 1
  %43 = load i32, i32* %5, align 4
  %44 = sext i32 %43 to i64
  %45 = getelementptr inbounds [300 x i8], [300 x i8]* %3, i64 0, i64 %44
  store i8 %42, i8* %45, align 1
  %46 = load i32, i32* %4, align 4
  %47 = add nsw i32 %46, 1
  store i32 %47, i32* %6, align 4
  br label %53

48:                                               ; preds = %31
  br label %49

49:                                               ; preds = %48
  br label %50

50:                                               ; preds = %49
  %51 = load i32, i32* %4, align 4
  %52 = add nsw i32 %51, 1
  store i32 %52, i32* %4, align 4
  br label %20

53:                                               ; preds = %38, %20
  br label %54

54:                                               ; preds = %53
  %55 = load i32, i32* %5, align 4
  %56 = add nsw i32 %55, 1
  store i32 %56, i32* %5, align 4
  br label %15

57:                                               ; preds = %15
  %58 = getelementptr inbounds [300 x i8], [300 x i8]* %3, i64 0, i64 0
  %59 = call i32 @puts(i8* %58)
  ret i32 0
}

; Function Attrs: argmemonly nounwind willreturn
declare void @llvm.memset.p0i8.i64(i8* nocapture writeonly, i8, i64, i1 immarg) #1

declare dso_local i32 @gets(...) #2

declare dso_local i32 @puts(i8*) #2


!llvm.module.flags = !{!0}
!llvm.ident = !{!1}

!0 = !{i32 1, !"wchar_size", i32 4}
!1 = !{!"clang version 10.0.0-4ubuntu1 "}
