; ModuleID = 'source-C-CXX/25/1152.c'
source_filename = "source-C-CXX/25/1152.c"
target datalayout = "e-m:e-p270:32:32-p271:32:32-p272:64:64-i64:64-f80:128-n8:16:32:64-S128"
target triple = "x86_64-pc-linux-gnu"

; Function Attrs: nounwind sspstrong uwtable
define dso_local i32 @main() local_unnamed_addr #0 {
  %1 = alloca [300 x i8], align 16
  %2 = alloca [300 x i8], align 16
  %3 = getelementptr inbounds [300 x i8], [300 x i8]* %1, i64 0, i64 0
  call void @llvm.lifetime.start.p0i8(i64 300, i8* nonnull %3) #6
  call void @llvm.memset.p0i8.i64(i8* noundef nonnull align 16 dereferenceable(300) %3, i8 0, i64 300, i1 false)
  store i8 32, i8* %3, align 16
  %4 = getelementptr inbounds [300 x i8], [300 x i8]* %2, i64 0, i64 0
  call void @llvm.lifetime.start.p0i8(i64 300, i8* nonnull %4) #6
  call void @llvm.memset.p0i8.i64(i8* noundef nonnull align 16 dereferenceable(300) %4, i8 0, i64 300, i1 false)
  store i8 32, i8* %4, align 16
  %5 = call i32 (i8*, ...) bitcast (i32 (...)* @gets to i32 (i8*, ...)*)(i8* nonnull %3) #6
  br label %6

6:                                                ; preds = %0, %30
  %7 = phi i64 [ 0, %0 ], [ %32, %30 ]
  %8 = phi i32 [ 0, %0 ], [ %31, %30 ]
  %9 = sext i32 %8 to i64
  %10 = call i64 @llvm.smax.i64(i64 %9, i64 200)
  br label %11

11:                                               ; preds = %6, %19
  %12 = phi i64 [ %9, %6 ], [ %15, %19 ]
  %13 = icmp eq i64 %12, %10
  br i1 %13, label %30, label %14

14:                                               ; preds = %11
  %15 = add nsw i64 %12, 1
  %16 = getelementptr inbounds [300 x i8], [300 x i8]* %1, i64 0, i64 %15
  %17 = load i8, i8* %16, align 1, !tbaa !5
  %18 = icmp eq i8 %17, 32
  br i1 %18, label %19, label %23

19:                                               ; preds = %14
  %20 = getelementptr inbounds [300 x i8], [300 x i8]* %1, i64 0, i64 %12
  %21 = load i8, i8* %20, align 1, !tbaa !5
  %22 = icmp eq i8 %21, 32
  br i1 %22, label %11, label %23, !llvm.loop !8

23:                                               ; preds = %19, %14
  %24 = trunc i64 %15 to i32
  %25 = shl i64 %12, 32
  %26 = ashr exact i64 %25, 32
  %27 = getelementptr inbounds [300 x i8], [300 x i8]* %1, i64 0, i64 %26
  %28 = load i8, i8* %27, align 1, !tbaa !5
  %29 = getelementptr inbounds [300 x i8], [300 x i8]* %2, i64 0, i64 %7
  store i8 %28, i8* %29, align 1, !tbaa !5
  br label %30

30:                                               ; preds = %11, %23
  %31 = phi i32 [ %24, %23 ], [ %8, %11 ]
  %32 = add nuw nsw i64 %7, 1
  %33 = icmp eq i64 %32, 200
  br i1 %33, label %34, label %6, !llvm.loop !10

34:                                               ; preds = %30
  %35 = call i32 @puts(i8* nonnull %4)
  call void @llvm.lifetime.end.p0i8(i64 300, i8* nonnull %4) #6
  call void @llvm.lifetime.end.p0i8(i64 300, i8* nonnull %3) #6
  ret i32 0
}

; Function Attrs: argmemonly mustprogress nofree nosync nounwind willreturn
declare void @llvm.lifetime.start.p0i8(i64 immarg, i8* nocapture) #1

; Function Attrs: argmemonly mustprogress nofree nounwind willreturn writeonly
declare void @llvm.memset.p0i8.i64(i8* nocapture writeonly, i8, i64, i1 immarg) #2

declare i32 @gets(...) local_unnamed_addr #3

; Function Attrs: nofree nounwind
declare noundef i32 @puts(i8* nocapture noundef readonly) local_unnamed_addr #4

; Function Attrs: argmemonly mustprogress nofree nosync nounwind willreturn
declare void @llvm.lifetime.end.p0i8(i64 immarg, i8* nocapture) #1

; Function Attrs: nofree nosync nounwind readnone speculatable willreturn
declare i64 @llvm.smax.i64(i64, i64) #5


!llvm.module.flags = !{!0, !1, !2, !3}
!llvm.ident = !{!4}

!0 = !{i32 1, !"wchar_size", i32 4}
!1 = !{i32 7, !"PIC Level", i32 2}
!2 = !{i32 7, !"PIE Level", i32 2}
!3 = !{i32 7, !"uwtable", i32 1}
!4 = !{!"clang version 13.0.0"}
!5 = !{!6, !6, i64 0}
!6 = !{!"omnipotent char", !7, i64 0}
!7 = !{!"Simple C/C++ TBAA"}
!8 = distinct !{!8, !9}
!9 = !{!"llvm.loop.mustprogress"}
!10 = distinct !{!10, !9}
